target datalayout = "e-m:e-p270:32:32-p271:32:32-p272:64:64-i64:64-i128:128-f80:128-n8:16:32:64-S128"
target triple = "x86_64-pc-linux-gnu"

%struct.ARKodeMemRec = type { ptr, double, ptr, i32, i32, double, double, ptr, i32, double, ptr, i32, i32, ptr, ptr, i32, ptr, ptr, i32, ptr, ptr, ptr, ptr, ptr, ptr, ptr, ptr, ptr, ptr, ptr, ptr, ptr, ptr, ptr, i32, ptr, ptr, i32, ptr, i32, ptr, ptr, ptr, ptr, ptr, ptr, ptr, ptr, ptr, ptr, ptr, ptr, ptr, ptr, ptr, ptr, ptr, ptr, ptr, ptr, ptr, ptr, ptr, ptr, ptr, ptr, i32, ptr, ptr, ptr, ptr, ptr, ptr, ptr, i32, ptr, ptr, ptr, i32, ptr, ptr, ptr, ptr, ptr, ptr, ptr, i32, i32, i32, i32, double, double, double, double, double, double, double, double, double, double, i32, ptr, i64, i32, i32, i32, i32, i64, i64, i32, i64, i64, i64, i64, i64, i64, i64, double, double, double, double, double, i32, double, double, i32, i32, i32, i32, i32, i32, i32, i32, ptr, i32, ptr, ptr, ptr, ptr, i32, i32, i32 }
%struct.ARKodeLSRKStepMemRec = type { ptr, ptr, i32, i32, i32, i32, i64, i64, i32, i32, i64, i64, double, double, double, double, double, double, i64, i32, i32, i32, i32, ptr, ptr, i32 }

@.str = private unnamed_addr constant [124 x i8] c"generated/home/dtcxzyw/WorkSpace/Projects/compilers/llvm-opt-benchmark/bench/sundials/sundials/src/arkode/arkode_lsrkstep.c\00", align 1
@__func__.lsrkStep_Init = private unnamed_addr constant [14 x i8] c"lsrkStep_Init\00", align 1
@.str.10 = private unnamed_addr constant [65 x i8] c"STS methods require a user provided dominant eigenvalue function\00", align 1
@.str.39 = private unnamed_addr constant [33 x i8] c"Time step module memory is NULL.\00", align 1

; Function Attrs: nounwind uwtable
define i32 @lsrkStep_AccessStepMem(ptr noundef %0, ptr noundef %1, ptr noundef %2) #0 {
  %4 = alloca i32, align 4
  %5 = alloca ptr, align 8
  %6 = alloca ptr, align 8
  %7 = alloca ptr, align 8
  store ptr %0, ptr %5, align 8, !tbaa !13
  store ptr %1, ptr %6, align 8, !tbaa !110
  store ptr %2, ptr %7, align 8, !tbaa !114
  %8 = load ptr, ptr %5, align 8, !tbaa !13
  %9 = getelementptr inbounds nuw %struct.ARKodeMemRec, ptr %8, i32 0, i32 19
  %10 = load ptr, ptr %9, align 8, !tbaa !35
  %11 = icmp eq ptr %10, null
  br i1 %11, label %12, label %15

12:                                               ; preds = %3
  %13 = load ptr, ptr %5, align 8, !tbaa !13
  %14 = load ptr, ptr %6, align 8, !tbaa !110
  call void (ptr, i32, i32, ptr, ptr, ptr, ...) @arkProcessError(ptr noundef %13, i32 noundef -21, i32 noundef 2160, ptr noundef %14, ptr noundef @.str, ptr noundef @.str.39)
  store i32 -21, ptr %4, align 4
  br label %20

15:                                               ; preds = %3
  %16 = load ptr, ptr %5, align 8, !tbaa !13
  %17 = getelementptr inbounds nuw %struct.ARKodeMemRec, ptr %16, i32 0, i32 19
  %18 = load ptr, ptr %17, align 8, !tbaa !35
  %19 = load ptr, ptr %7, align 8, !tbaa !114
  store ptr %18, ptr %19, align 8, !tbaa !17
  store i32 0, ptr %4, align 4
  br label %20

20:                                               ; preds = %15, %12
  %21 = load i32, ptr %4, align 4
  ret i32 %21
}

; Function Attrs: nounwind uwtable
define i32 @lsrkStep_Init(ptr noundef %0, double noundef %1, i32 noundef %2) #0 {
  %4 = alloca i32, align 4
  %5 = alloca ptr, align 8
  %6 = alloca double, align 8
  %7 = alloca i32, align 4
  %8 = alloca ptr, align 8
  %9 = alloca i32, align 4
  %10 = alloca i32, align 4
  store ptr %0, ptr %5, align 8, !tbaa !13
  store double %1, ptr %6, align 8, !tbaa !7
  store i32 %2, ptr %7, align 4, !tbaa !15
  call void @llvm.lifetime.start.p0(i64 8, ptr %8) #6
  call void @llvm.lifetime.start.p0(i64 4, ptr %9) #6
  %11 = load ptr, ptr %5, align 8, !tbaa !13
  %12 = call i32 @lsrkStep_AccessStepMem(ptr noundef %11, ptr noundef @__func__.lsrkStep_Init, ptr noundef %8)
  store i32 %12, ptr %9, align 4, !tbaa !15
  %13 = load i32, ptr %9, align 4, !tbaa !15
  %14 = icmp ne i32 %13, 0
  br i1 %14, label %15, label %17

15:                                               ; preds = %3
  %16 = load i32, ptr %9, align 4, !tbaa !15
  store i32 %16, ptr %4, align 4
  store i32 1, ptr %10, align 4
  br label %111

17:                                               ; preds = %3
  %18 = load i32, ptr %7, align 4, !tbaa !15
  %19 = icmp eq i32 %18, 2
  br i1 %19, label %23, label %20

20:                                               ; preds = %17
  %21 = load i32, ptr %7, align 4, !tbaa !15
  %22 = icmp eq i32 %21, 1
  br i1 %22, label %23, label %24

23:                                               ; preds = %20, %17
  store i32 0, ptr %4, align 4
  store i32 1, ptr %10, align 4
  br label %111

24:                                               ; preds = %20
  %25 = load ptr, ptr %5, align 8, !tbaa !13
  %26 = getelementptr inbounds nuw %struct.ARKodeMemRec, ptr %25, i32 0, i32 100
  %27 = load i32, ptr %26, align 8, !tbaa !68
  %28 = icmp ne i32 %27, 0
  br i1 %28, label %29, label %42

29:                                               ; preds = %24
  %30 = load ptr, ptr %5, align 8, !tbaa !13
  %31 = getelementptr inbounds nuw %struct.ARKodeMemRec, ptr %30, i32 0, i32 12
  %32 = load i32, ptr %31, align 4, !tbaa !69
  %33 = icmp ne i32 %32, 0
  br i1 %33, label %42, label %34

34:                                               ; preds = %29
  %35 = load ptr, ptr %5, align 8, !tbaa !13
  %36 = getelementptr inbounds nuw %struct.ARKodeMemRec, ptr %35, i32 0, i32 12
  store i32 0, ptr %36, align 4, !tbaa !69
  %37 = load ptr, ptr %5, align 8, !tbaa !13
  %38 = getelementptr inbounds nuw %struct.ARKodeMemRec, ptr %37, i32 0, i32 13
  store ptr @arkEwtSetSmallReal, ptr %38, align 8, !tbaa !70
  %39 = load ptr, ptr %5, align 8, !tbaa !13
  %40 = load ptr, ptr %5, align 8, !tbaa !13
  %41 = getelementptr inbounds nuw %struct.ARKodeMemRec, ptr %40, i32 0, i32 14
  store ptr %39, ptr %41, align 8, !tbaa !71
  br label %42

42:                                               ; preds = %34, %29, %24
  %43 = load ptr, ptr %8, align 8, !tbaa !17
  %44 = getelementptr inbounds nuw %struct.ARKodeLSRKStepMemRec, ptr %43, i32 0, i32 22
  %45 = load i32, ptr %44, align 4, !tbaa !72
  %46 = icmp ne i32 %45, 0
  br i1 %46, label %54, label %47

47:                                               ; preds = %42
  %48 = load ptr, ptr %8, align 8, !tbaa !17
  %49 = getelementptr inbounds nuw %struct.ARKodeLSRKStepMemRec, ptr %48, i32 0, i32 1
  %50 = load ptr, ptr %49, align 8, !tbaa !41
  %51 = icmp eq ptr %50, null
  br i1 %51, label %52, label %54

52:                                               ; preds = %47
  %53 = load ptr, ptr %5, align 8, !tbaa !13
  call void (ptr, i32, i32, ptr, ptr, ptr, ...) @arkProcessError(ptr noundef %53, i32 noundef -49, i32 noundef 339, ptr noundef @__func__.lsrkStep_Init, ptr noundef @.str, ptr noundef @.str.10)
  store i32 -49, ptr %4, align 4
  store i32 1, ptr %10, align 4
  br label %111

54:                                               ; preds = %47, %42
  %55 = load ptr, ptr %8, align 8, !tbaa !17
  %56 = getelementptr inbounds nuw %struct.ARKodeLSRKStepMemRec, ptr %55, i32 0, i32 23
  %57 = load ptr, ptr %56, align 8, !tbaa !47
  %58 = icmp eq ptr %57, null
  br i1 %58, label %59, label %81

59:                                               ; preds = %54
  %60 = load ptr, ptr %8, align 8, !tbaa !17
  %61 = getelementptr inbounds nuw %struct.ARKodeLSRKStepMemRec, ptr %60, i32 0, i32 25
  %62 = load i32, ptr %61, align 8, !tbaa !48
  %63 = sext i32 %62 to i64
  %64 = call noalias ptr @calloc(i64 noundef %63, i64 noundef 8) #7
  %65 = load ptr, ptr %8, align 8, !tbaa !17
  %66 = getelementptr inbounds nuw %struct.ARKodeLSRKStepMemRec, ptr %65, i32 0, i32 23
  store ptr %64, ptr %66, align 8, !tbaa !47
  %67 = load ptr, ptr %8, align 8, !tbaa !17
  %68 = getelementptr inbounds nuw %struct.ARKodeLSRKStepMemRec, ptr %67, i32 0, i32 23
  %69 = load ptr, ptr %68, align 8, !tbaa !47
  %70 = icmp eq ptr %69, null
  br i1 %70, label %71, label %72

71:                                               ; preds = %59
  store i32 -20, ptr %4, align 4
  store i32 1, ptr %10, align 4
  br label %111

72:                                               ; preds = %59
  %73 = load ptr, ptr %8, align 8, !tbaa !17
  %74 = getelementptr inbounds nuw %struct.ARKodeLSRKStepMemRec, ptr %73, i32 0, i32 25
  %75 = load i32, ptr %74, align 8, !tbaa !48
  %76 = sext i32 %75 to i64
  %77 = load ptr, ptr %5, align 8, !tbaa !13
  %78 = getelementptr inbounds nuw %struct.ARKodeMemRec, ptr %77, i32 0, i32 115
  %79 = load i64, ptr %78, align 8, !tbaa !49
  %80 = add nsw i64 %79, %76
  store i64 %80, ptr %78, align 8, !tbaa !49
  br label %81

81:                                               ; preds = %72, %54
  %82 = load ptr, ptr %8, align 8, !tbaa !17
  %83 = getelementptr inbounds nuw %struct.ARKodeLSRKStepMemRec, ptr %82, i32 0, i32 24
  %84 = load ptr, ptr %83, align 8, !tbaa !50
  %85 = icmp eq ptr %84, null
  br i1 %85, label %86, label %108

86:                                               ; preds = %81
  %87 = load ptr, ptr %8, align 8, !tbaa !17
  %88 = getelementptr inbounds nuw %struct.ARKodeLSRKStepMemRec, ptr %87, i32 0, i32 25
  %89 = load i32, ptr %88, align 8, !tbaa !48
  %90 = sext i32 %89 to i64
  %91 = call noalias ptr @calloc(i64 noundef %90, i64 noundef 8) #7
  %92 = load ptr, ptr %8, align 8, !tbaa !17
  %93 = getelementptr inbounds nuw %struct.ARKodeLSRKStepMemRec, ptr %92, i32 0, i32 24
  store ptr %91, ptr %93, align 8, !tbaa !50
  %94 = load ptr, ptr %8, align 8, !tbaa !17
  %95 = getelementptr inbounds nuw %struct.ARKodeLSRKStepMemRec, ptr %94, i32 0, i32 24
  %96 = load ptr, ptr %95, align 8, !tbaa !50
  %97 = icmp eq ptr %96, null
  br i1 %97, label %98, label %99

98:                                               ; preds = %86
  store i32 -20, ptr %4, align 4
  store i32 1, ptr %10, align 4
  br label %111

99:                                               ; preds = %86
  %100 = load ptr, ptr %8, align 8, !tbaa !17
  %101 = getelementptr inbounds nuw %struct.ARKodeLSRKStepMemRec, ptr %100, i32 0, i32 25
  %102 = load i32, ptr %101, align 8, !tbaa !48
  %103 = sext i32 %102 to i64
  %104 = load ptr, ptr %5, align 8, !tbaa !13
  %105 = getelementptr inbounds nuw %struct.ARKodeMemRec, ptr %104, i32 0, i32 116
  %106 = load i64, ptr %105, align 8, !tbaa !51
  %107 = add nsw i64 %106, %103
  store i64 %107, ptr %105, align 8, !tbaa !51
  br label %108

108:                                              ; preds = %99, %81
  %109 = load ptr, ptr %5, align 8, !tbaa !13
  %110 = getelementptr inbounds nuw %struct.ARKodeMemRec, ptr %109, i32 0, i32 132
  store i32 1, ptr %110, align 4, !tbaa !73
  store i32 0, ptr %4, align 4
  store i32 1, ptr %10, align 4
  br label %111

111:                                              ; preds = %108, %98, %71, %52, %23, %15
  call void @llvm.lifetime.end.p0(i64 4, ptr %9) #6
  call void @llvm.lifetime.end.p0(i64 8, ptr %8) #6
  %112 = load i32, ptr %4, align 4
  ret i32 %112
}