; Function Attrs: nounwind uwtable
define range(i32 -49, 1) i32 @lsrkStep_Init(ptr noundef %0, double %1, i32 noundef %2) #0 {
  %4 = getelementptr inbounds nuw i8, ptr %0, i64 136
  %5 = load ptr, ptr %4, align 8, !tbaa !3
  %6 = icmp eq ptr %5, null
  br i1 %6, label %lsrkStep_AccessStepMem.exit, label %7

lsrkStep_AccessStepMem.exit:                      ; preds = %3
  tail call void (ptr, i32, i32, ptr, ptr, ptr, ...) @arkProcessError(ptr noundef nonnull %0, i32 noundef -21, i32 noundef 2160, ptr noundef nonnull @__func__.lsrkStep_Init, ptr noundef nonnull @.str, ptr noundef nonnull @.str.39) #13
  br label %56

7:                                                ; preds = %3
  %8 = add i32 %2, -1
  %or.cond = icmp ult i32 %8, 2
  br i1 %or.cond, label %56, label %9

9:                                                ; preds = %7
  %10 = getelementptr inbounds nuw i8, ptr %0, i64 768
  %11 = load i32, ptr %10, align 8, !tbaa !56
  %.not17 = icmp eq i32 %11, 0
  br i1 %.not17, label %18, label %12

12:                                               ; preds = %9
  %13 = getelementptr inbounds nuw i8, ptr %0, i64 84
  %14 = load i32, ptr %13, align 4, !tbaa !57
  %.not18 = icmp eq i32 %14, 0
  br i1 %.not18, label %15, label %18

15:                                               ; preds = %12
  %16 = getelementptr inbounds nuw i8, ptr %0, i64 88
  store ptr @arkEwtSetSmallReal, ptr %16, align 8, !tbaa !58
  %17 = getelementptr inbounds nuw i8, ptr %0, i64 96
  store ptr %0, ptr %17, align 8, !tbaa !59
  br label %18

18:                                               ; preds = %15, %12, %9
  %19 = getelementptr inbounds nuw i8, ptr %5, i64 140
  %20 = load i32, ptr %19, align 4, !tbaa !60
  %.not19 = icmp eq i32 %20, 0
  br i1 %.not19, label %21, label %26

21:                                               ; preds = %18
  %22 = getelementptr inbounds nuw i8, ptr %5, i64 8
  %23 = load ptr, ptr %22, align 8, !tbaa !50
  %24 = icmp eq ptr %23, null
  br i1 %24, label %25, label %26

25:                                               ; preds = %21
  tail call void (ptr, i32, i32, ptr, ptr, ptr, ...) @arkProcessError(ptr noundef nonnull %0, i32 noundef -49, i32 noundef 339, ptr noundef nonnull @__func__.lsrkStep_Init, ptr noundef nonnull @.str, ptr noundef nonnull @.str.10) #13
  br label %56

26:                                               ; preds = %21, %18
  %27 = getelementptr inbounds nuw i8, ptr %5, i64 144
  %28 = load ptr, ptr %27, align 8, !tbaa !17
  %29 = icmp eq ptr %28, null
  br i1 %29, label %30, label %40

30:                                               ; preds = %26
  %31 = getelementptr inbounds nuw i8, ptr %5, i64 160
  %32 = load i32, ptr %31, align 8, !tbaa !21
  %33 = sext i32 %32 to i64
  %34 = tail call noalias ptr @calloc(i64 noundef %33, i64 noundef 8) #14
  store ptr %34, ptr %27, align 8, !tbaa !17
  %35 = icmp eq ptr %34, null
  br i1 %35, label %56, label %36

36:                                               ; preds = %30
  %37 = getelementptr inbounds nuw i8, ptr %0, i64 872
  %38 = load i64, ptr %37, align 8, !tbaa !22
  %39 = add nsw i64 %38, %33
  store i64 %39, ptr %37, align 8, !tbaa !22
  br label %40

40:                                               ; preds = %36, %26
  %41 = getelementptr inbounds nuw i8, ptr %5, i64 152
  %42 = load ptr, ptr %41, align 8, !tbaa !23
  %43 = icmp eq ptr %42, null
  br i1 %43, label %44, label %54

44:                                               ; preds = %40
  %45 = getelementptr inbounds nuw i8, ptr %5, i64 160
  %46 = load i32, ptr %45, align 8, !tbaa !21
  %47 = sext i32 %46 to i64
  %48 = tail call noalias ptr @calloc(i64 noundef %47, i64 noundef 8) #14
  store ptr %48, ptr %41, align 8, !tbaa !23
  %49 = icmp eq ptr %48, null
  br i1 %49, label %56, label %50

50:                                               ; preds = %44
  %51 = getelementptr inbounds nuw i8, ptr %0, i64 880
  %52 = load i64, ptr %51, align 8, !tbaa !24
  %53 = add nsw i64 %52, %47
  store i64 %53, ptr %51, align 8, !tbaa !24
  br label %54

54:                                               ; preds = %50, %40
  %55 = getelementptr inbounds nuw i8, ptr %0, i64 980
  store i32 1, ptr %55, align 4, !tbaa !61
  br label %56

56:                                               ; preds = %lsrkStep_AccessStepMem.exit, %44, %30, %7, %54, %25
  %.0 = phi i32 [ 0, %54 ], [ -49, %25 ], [ -21, %lsrkStep_AccessStepMem.exit ], [ 0, %7 ], [ -20, %30 ], [ -20, %44 ]
  ret i32 %.0
}